; Function Attrs: mustprogress nounwind willreturn uwtable
define hidden noundef range(i32 0, 2) i32 @_ZN5boost4wave8cpplexer7re2clex7aq_growEPNS2_16tag_aq_queuetypeE(ptr nocapture noundef %0) local_unnamed_addr #0 {
  %2 = getelementptr inbounds nuw i8, ptr %0, i64 24
  %3 = load i64, ptr %2, align 8, !tbaa !3
  %4 = shl i64 %3, 1
  %5 = getelementptr inbounds nuw i8, ptr %0, i64 32
  %6 = load ptr, ptr %5, align 8, !tbaa !9
  %7 = shl i64 %3, 4
  %8 = tail call ptr @realloc(ptr noundef %6, i64 noundef %7) #8
  %.not = icmp eq ptr %8, null
  br i1 %.not, label %20, label %9

9:                                                ; preds = %1
  store ptr %8, ptr %5, align 8, !tbaa !9
  %10 = getelementptr inbounds nuw i8, ptr %0, i64 8
  %11 = load i64, ptr %10, align 8, !tbaa !10
  %12 = load i64, ptr %0, align 8, !tbaa !11
  %.not18 = icmp ugt i64 %11, %12
  br i1 %.not18, label %19, label %13

13:                                               ; preds = %9
  %14 = load i64, ptr %2, align 8, !tbaa !3
  %15 = getelementptr inbounds nuw i64, ptr %8, i64 %14
  %16 = shl i64 %11, 3
  %17 = add i64 %16, 8
  tail call void @llvm.memcpy.p0.p0.i64(ptr nonnull align 8 %15, ptr nonnull align 8 %8, i64 %17, i1 false)
  %18 = add i64 %14, %11
  store i64 %18, ptr %10, align 8, !tbaa !10
  br label %19

19:                                               ; preds = %13, %9
  store i64 %4, ptr %2, align 8, !tbaa !3
  br label %20

20:                                               ; preds = %1, %19
  %.0 = phi i32 [ 1, %19 ], [ 0, %1 ]
  ret i32 %.0
}